target datalayout = "e-m:e-p270:32:32-p271:32:32-p272:64:64-i64:64-i128:128-f80:128-n8:16:32:64-S128"
target triple = "x86_64-unknown-linux-gnu"

%struct.QCryptoBlockLUKSHeader = type { [6 x i8], i16, [32 x i8], [32 x i8], [32 x i8], i32, i32, [20 x i8], [32 x i8], i32, [40 x i8], [8 x %struct.QCryptoBlockLUKSKeySlot] }
%struct.QCryptoBlockLUKSKeySlot = type { i32, i32, [32 x i8], i32, i32 }

@qcrypto_block_luks_magic = internal constant [6 x i8] c"LUKS\BA\BE", align 1

; Function Attrs: nounwind sspstrong uwtable
define internal zeroext i16 @be16_to_cpu(i16 noundef zeroext %v) #0 {
entry:
  %v.addr = alloca i16, align 2
  store i16 %v, ptr %v.addr, align 2
  %0 = load i16, ptr %v.addr, align 2
  %1 = call i16 @llvm.bswap.i16(i16 %0)
  ret i16 %1
}

; Function Attrs: nounwind sspstrong uwtable
define internal zeroext i1 @qcrypto_block_luks_has_format(ptr noundef %buf, i64 noundef %buf_size) #0 {
entry:
  %retval = alloca i1, align 1
  %buf.addr = alloca ptr, align 8
  %buf_size.addr = alloca i64, align 8
  %luks_header = alloca ptr, align 8
  store ptr %buf, ptr %buf.addr, align 8
  store i64 %buf_size, ptr %buf_size.addr, align 8
  %0 = load ptr, ptr %buf.addr, align 8
  store ptr %0, ptr %luks_header, align 8
  %1 = load i64, ptr %buf_size.addr, align 8
  %cmp = icmp uge i64 %1, 8
  br i1 %cmp, label %land.lhs.true, label %if.else

land.lhs.true:                                    ; preds = %entry
  %2 = load ptr, ptr %luks_header, align 8
  %magic = getelementptr inbounds %struct.QCryptoBlockLUKSHeader, ptr %2, i32 0, i32 0
  %arraydecay = getelementptr inbounds [6 x i8], ptr %magic, i64 0, i64 0
  %call = call i32 @memcmp(ptr noundef %arraydecay, ptr noundef @qcrypto_block_luks_magic, i64 noundef 6) #12
  %cmp1 = icmp eq i32 %call, 0
  br i1 %cmp1, label %land.lhs.true2, label %if.else

land.lhs.true2:                                   ; preds = %land.lhs.true
  %3 = load ptr, ptr %luks_header, align 8
  %version = getelementptr inbounds %struct.QCryptoBlockLUKSHeader, ptr %3, i32 0, i32 1
  %4 = load i16, ptr %version, align 2
  %call3 = call zeroext i16 @be16_to_cpu(i16 noundef zeroext %4)
  %conv = zext i16 %call3 to i32
  %cmp4 = icmp eq i32 %conv, 1
  br i1 %cmp4, label %if.then, label %if.else

if.then:                                          ; preds = %land.lhs.true2
  store i1 true, ptr %retval, align 1
  br label %return

if.else:                                          ; preds = %land.lhs.true2, %land.lhs.true, %entry
  store i1 false, ptr %retval, align 1
  br label %return

return:                                           ; preds = %if.else, %if.then
  %5 = load i1, ptr %retval, align 1
  ret i1 %5
}